target datalayout = "e-m:e-p270:32:32-p271:32:32-p272:64:64-i64:64-i128:128-f80:128-n8:16:32:64-S128"
target triple = "x86_64-pc-linux-gnu"

%struct.options = type { i8, i8, i8, i8, i8, i32, ptr }
%struct.file_stream = type { i32, ptr, i8, ptr, ptr, i64 }

@.str.14 = private unnamed_addr constant [23 x i8] c"%s: not in gzip format\00", align 1
@.str.15 = private unnamed_addr constant [63 x i8] c"%s: file is probably too large to be processed by this program\00", align 1
@.str.16 = private unnamed_addr constant [64 x i8] c"Bug in libdeflate_gzip_decompress_ex(): data expanded too much!\00", align 1
@.str.17 = private unnamed_addr constant [62 x i8] c"%s: file corrupt or too large to be processed by this program\00", align 1
@.str.18 = private unnamed_addr constant [39 x i8] c"%s: file corrupt or not in gzip format\00", align 1
@.str.19 = private unnamed_addr constant [72 x i8] c"Bug in libdeflate_gzip_decompress_ex(): impossible actual_nbytes value!\00", align 1

; Function Attrs: alwaysinline nounwind uwtable
define internal i32 @load_u32_unaligned(ptr noundef %0) #8 {
  %2 = alloca ptr, align 8
  %3 = alloca i32, align 4
  store ptr %0, ptr %2, align 8, !tbaa !52
  call void @llvm.lifetime.start.p0(i64 4, ptr %3) #9
  %4 = load ptr, ptr %2, align 8, !tbaa !52
  call void @llvm.memcpy.p0.p0.i64(ptr align 4 %3, ptr align 1 %4, i64 4, i1 false)
  %5 = load i32, ptr %3, align 4, !tbaa !5
  call void @llvm.lifetime.end.p0(i64 4, ptr %3) #9
  ret i32 %5
}

; Function Attrs: alwaysinline nounwind uwtable
define internal i32 @get_unaligned_le32(ptr noundef %0) #8 {
  %2 = alloca ptr, align 8
  store ptr %0, ptr %2, align 8, !tbaa !22
  %3 = load ptr, ptr %2, align 8, !tbaa !22
  %4 = call i32 @load_u32_unaligned(ptr noundef %3)
  ret i32 %4
}

; Function Attrs: nounwind uwtable
define internal i32 @do_decompress(ptr noundef %0, ptr noundef %1, ptr noundef %2, ptr noundef %3) #0 {
  %5 = alloca i32, align 4
  %6 = alloca ptr, align 8
  %7 = alloca ptr, align 8
  %8 = alloca ptr, align 8
  %9 = alloca ptr, align 8
  %10 = alloca ptr, align 8
  %11 = alloca i64, align 8
  %12 = alloca ptr, align 8
  %13 = alloca i64, align 8
  %14 = alloca i64, align 8
  %15 = alloca i64, align 8
  %16 = alloca i64, align 8
  %17 = alloca i32, align 4
  %18 = alloca i32, align 4
  %19 = alloca i32, align 4
  store ptr %0, ptr %6, align 8, !tbaa !29
  store ptr %1, ptr %7, align 8, !tbaa !42
  store ptr %2, ptr %8, align 8, !tbaa !42
  store ptr %3, ptr %9, align 8, !tbaa !33
  call void @llvm.lifetime.start.p0(i64 8, ptr %10) #9
  %20 = load ptr, ptr %7, align 8, !tbaa !42
  %21 = getelementptr inbounds nuw %struct.file_stream, ptr %20, i32 0, i32 4
  %22 = load ptr, ptr %21, align 8, !tbaa !50
  store ptr %22, ptr %10, align 8, !tbaa !22
  call void @llvm.lifetime.start.p0(i64 8, ptr %11) #9
  %23 = load ptr, ptr %7, align 8, !tbaa !42
  %24 = getelementptr inbounds nuw %struct.file_stream, ptr %23, i32 0, i32 5
  %25 = load i64, ptr %24, align 8, !tbaa !51
  store i64 %25, ptr %11, align 8, !tbaa !41
  call void @llvm.lifetime.start.p0(i64 8, ptr %12) #9
  store ptr null, ptr %12, align 8, !tbaa !52
  call void @llvm.lifetime.start.p0(i64 8, ptr %13) #9
  call void @llvm.lifetime.start.p0(i64 8, ptr %14) #9
  call void @llvm.lifetime.start.p0(i64 8, ptr %15) #9
  call void @llvm.lifetime.start.p0(i64 8, ptr %16) #9
  call void @llvm.lifetime.start.p0(i64 4, ptr %17) #9
  call void @llvm.lifetime.start.p0(i64 4, ptr %18) #9
  store i32 0, ptr %18, align 4, !tbaa !5
  %26 = load i64, ptr %11, align 8, !tbaa !41
  %27 = icmp ult i64 %26, 18
  br i1 %27, label %40, label %28

28:                                               ; preds = %4
  %29 = load ptr, ptr %10, align 8, !tbaa !22
  %30 = getelementptr inbounds i8, ptr %29, i64 0
  %31 = load i8, ptr %30, align 1, !tbaa !26
  %32 = zext i8 %31 to i32
  %33 = icmp ne i32 %32, 31
  br i1 %33, label %40, label %34

34:                                               ; preds = %28
  %35 = load ptr, ptr %10, align 8, !tbaa !22
  %36 = getelementptr inbounds i8, ptr %35, i64 1
  %37 = load i8, ptr %36, align 1, !tbaa !26
  %38 = zext i8 %37 to i32
  %39 = icmp ne i32 %38, 139
  br i1 %39, label %40, label %59

40:                                               ; preds = %34, %28, %4
  %41 = load ptr, ptr %9, align 8, !tbaa !33
  %42 = getelementptr inbounds nuw %struct.options, ptr %41, i32 0, i32 2
  %43 = load i8, ptr %42, align 2, !tbaa !17, !range !27, !noundef !28
  %44 = trunc i8 %43 to i1
  br i1 %44, label %45, label %55

45:                                               ; preds = %40
  %46 = load ptr, ptr %9, align 8, !tbaa !33
  %47 = getelementptr inbounds nuw %struct.options, ptr %46, i32 0, i32 0
  %48 = load i8, ptr %47, align 8, !tbaa !12, !range !27, !noundef !28
  %49 = trunc i8 %48 to i1
  br i1 %49, label %50, label %55

50:                                               ; preds = %45
  %51 = load ptr, ptr %8, align 8, !tbaa !42
  %52 = load ptr, ptr %10, align 8, !tbaa !22
  %53 = load i64, ptr %11, align 8, !tbaa !41
  %54 = call i32 @full_write(ptr noundef %51, ptr noundef %52, i64 noundef %53)
  store i32 %54, ptr %5, align 4
  store i32 1, ptr %19, align 4
  br label %173

55:                                               ; preds = %45, %40
  %56 = load ptr, ptr %7, align 8, !tbaa !42
  %57 = getelementptr inbounds nuw %struct.file_stream, ptr %56, i32 0, i32 1
  %58 = load ptr, ptr %57, align 8, !tbaa !46
  call void (ptr, ...) @msg(ptr noundef @.str.14, ptr noundef %58)
  store i32 -1, ptr %5, align 4
  store i32 1, ptr %19, align 4
  br label %173

59:                                               ; preds = %34
  %60 = load ptr, ptr %10, align 8, !tbaa !22
  %61 = load i64, ptr %11, align 8, !tbaa !41
  %62 = sub i64 %61, 4
  %63 = getelementptr inbounds nuw i8, ptr %60, i64 %62
  %64 = call i32 @get_unaligned_le32(ptr noundef %63)
  %65 = zext i32 %64 to i64
  store i64 %65, ptr %13, align 8, !tbaa !41
  %66 = load i64, ptr %13, align 8, !tbaa !41
  %67 = icmp eq i64 %66, 0
  br i1 %67, label %68, label %69

68:                                               ; preds = %59
  store i64 1, ptr %13, align 8, !tbaa !41
  br label %69

69:                                               ; preds = %68, %59
  %70 = load i64, ptr %11, align 8, !tbaa !41
  %71 = icmp ule i64 %70, 17874752009408480
  br i1 %71, label %72, label %75

72:                                               ; preds = %69
  %73 = load i64, ptr %11, align 8, !tbaa !41
  %74 = mul i64 %73, 1032
  store i64 %74, ptr %14, align 8, !tbaa !41
  br label %76

75:                                               ; preds = %69
  store i64 -1, ptr %14, align 8, !tbaa !41
  br label %76

76:                                               ; preds = %75, %72
  br label %77

77:                                               ; preds = %166, %76
  %78 = load ptr, ptr %12, align 8, !tbaa !52
  %79 = icmp eq ptr %78, null
  br i1 %79, label %80, label %99

80:                                               ; preds = %77
  %81 = load i64, ptr %13, align 8, !tbaa !41
  %82 = load i64, ptr %14, align 8, !tbaa !41
  %83 = icmp ule i64 %81, %82
  br i1 %83, label %84, label %86

84:                                               ; preds = %80
  %85 = load i64, ptr %13, align 8, !tbaa !41
  br label %88

86:                                               ; preds = %80
  %87 = load i64, ptr %14, align 8, !tbaa !41
  br label %88

88:                                               ; preds = %86, %84
  %89 = phi i64 [ %85, %84 ], [ %87, %86 ]
  store i64 %89, ptr %13, align 8, !tbaa !41
  %90 = load i64, ptr %13, align 8, !tbaa !41
  %91 = call ptr @xmalloc(i64 noundef %90)
  store ptr %91, ptr %12, align 8, !tbaa !52
  %92 = load ptr, ptr %12, align 8, !tbaa !52
  %93 = icmp eq ptr %92, null
  br i1 %93, label %94, label %98

94:                                               ; preds = %88
  %95 = load ptr, ptr %7, align 8, !tbaa !42
  %96 = getelementptr inbounds nuw %struct.file_stream, ptr %95, i32 0, i32 1
  %97 = load ptr, ptr %96, align 8, !tbaa !46
  call void (ptr, ...) @msg(ptr noundef @.str.15, ptr noundef %97)
  store i32 -1, ptr %18, align 4, !tbaa !5
  br label %170

98:                                               ; preds = %88
  br label %99

99:                                               ; preds = %98, %77
  %100 = load ptr, ptr %6, align 8, !tbaa !29
  %101 = load ptr, ptr %10, align 8, !tbaa !22
  %102 = load i64, ptr %11, align 8, !tbaa !41
  %103 = load ptr, ptr %12, align 8, !tbaa !52
  %104 = load i64, ptr %13, align 8, !tbaa !41
  %105 = call i32 @libdeflate_gzip_decompress_ex(ptr noundef %100, ptr noundef %101, i64 noundef %102, ptr noundef %103, i64 noundef %104, ptr noundef %15, ptr noundef %16)
  store i32 %105, ptr %17, align 4, !tbaa !5
  %106 = load i32, ptr %17, align 4, !tbaa !5
  %107 = icmp eq i32 %106, 3
  br i1 %107, label %108, label %126

108:                                              ; preds = %99
  %109 = load i64, ptr %13, align 8, !tbaa !41
  %110 = load i64, ptr %14, align 8, !tbaa !41
  %111 = icmp uge i64 %109, %110
  br i1 %111, label %112, label %113

112:                                              ; preds = %108
  call void (ptr, ...) @msg(ptr noundef @.str.16)
  store i32 -1, ptr %18, align 4, !tbaa !5
  br label %170

113:                                              ; preds = %108
  %114 = load i64, ptr %13, align 8, !tbaa !41
  %115 = mul i64 %114, 2
  %116 = load i64, ptr %13, align 8, !tbaa !41
  %117 = icmp ule i64 %115, %116
  br i1 %117, label %118, label %122

118:                                              ; preds = %113
  %119 = load ptr, ptr %7, align 8, !tbaa !42
  %120 = getelementptr inbounds nuw %struct.file_stream, ptr %119, i32 0, i32 1
  %121 = load ptr, ptr %120, align 8, !tbaa !46
  call void (ptr, ...) @msg(ptr noundef @.str.17, ptr noundef %121)
  store i32 -1, ptr %18, align 4, !tbaa !5
  br label %170

122:                                              ; preds = %113
  %123 = load i64, ptr %13, align 8, !tbaa !41
  %124 = mul i64 %123, 2
  store i64 %124, ptr %13, align 8, !tbaa !41
  %125 = load ptr, ptr %12, align 8, !tbaa !52
  call void @free(ptr noundef %125) #9
  store ptr null, ptr %12, align 8, !tbaa !52
  br label %166

126:                                              ; preds = %99
  %127 = load i32, ptr %17, align 4, !tbaa !5
  %128 = icmp ne i32 %127, 0
  br i1 %128, label %129, label %133

129:                                              ; preds = %126
  %130 = load ptr, ptr %7, align 8, !tbaa !42
  %131 = getelementptr inbounds nuw %struct.file_stream, ptr %130, i32 0, i32 1
  %132 = load ptr, ptr %131, align 8, !tbaa !46
  call void (ptr, ...) @msg(ptr noundef @.str.18, ptr noundef %132)
  store i32 -1, ptr %18, align 4, !tbaa !5
  br label %170

133:                                              ; preds = %126
  %134 = load i64, ptr %15, align 8, !tbaa !41
  %135 = icmp eq i64 %134, 0
  br i1 %135, label %144, label %136

136:                                              ; preds = %133
  %137 = load i64, ptr %15, align 8, !tbaa !41
  %138 = load i64, ptr %11, align 8, !tbaa !41
  %139 = icmp ugt i64 %137, %138
  br i1 %139, label %144, label %140

140:                                              ; preds = %136
  %141 = load i64, ptr %16, align 8, !tbaa !41
  %142 = load i64, ptr %13, align 8, !tbaa !41
  %143 = icmp ugt i64 %141, %142
  br i1 %143, label %144, label %145

144:                                              ; preds = %140, %136, %133
  call void (ptr, ...) @msg(ptr noundef @.str.19)
  store i32 -1, ptr %18, align 4, !tbaa !5
  br label %170

145:                                              ; preds = %140
  %146 = load ptr, ptr %9, align 8, !tbaa !33
  %147 = getelementptr inbounds nuw %struct.options, ptr %146, i32 0, i32 4
  %148 = load i8, ptr %147, align 4, !tbaa !19, !range !27, !noundef !28
  %149 = trunc i8 %148 to i1
  br i1 %149, label %159, label %150

150:                                              ; preds = %145
  %151 = load ptr, ptr %8, align 8, !tbaa !42
  %152 = load ptr, ptr %12, align 8, !tbaa !52
  %153 = load i64, ptr %16, align 8, !tbaa !41
  %154 = call i32 @full_write(ptr noundef %151, ptr noundef %152, i64 noundef %153)
  store i32 %154, ptr %18, align 4, !tbaa !5
  %155 = load i32, ptr %18, align 4, !tbaa !5
  %156 = icmp ne i32 %155, 0
  br i1 %156, label %157, label %158

157:                                              ; preds = %150
  br label %170

158:                                              ; preds = %150
  br label %159

159:                                              ; preds = %158, %145
  %160 = load i64, ptr %15, align 8, !tbaa !41
  %161 = load ptr, ptr %10, align 8, !tbaa !22
  %162 = getelementptr inbounds nuw i8, ptr %161, i64 %160
  store ptr %162, ptr %10, align 8, !tbaa !22
  %163 = load i64, ptr %15, align 8, !tbaa !41
  %164 = load i64, ptr %11, align 8, !tbaa !41
  %165 = sub i64 %164, %163
  store i64 %165, ptr %11, align 8, !tbaa !41
  br label %166

166:                                              ; preds = %159, %122
  %167 = load i64, ptr %11, align 8, !tbaa !41
  %168 = icmp ne i64 %167, 0
  br i1 %168, label %77, label %169

169:                                              ; preds = %166
  br label %170

170:                                              ; preds = %169, %157, %144, %129, %118, %112, %94
  %171 = load ptr, ptr %12, align 8, !tbaa !52
  call void @free(ptr noundef %171) #9
  %172 = load i32, ptr %18, align 4, !tbaa !5
  store i32 %172, ptr %5, align 4
  store i32 1, ptr %19, align 4
  br label %173

173:                                              ; preds = %170, %55, %50
  call void @llvm.lifetime.end.p0(i64 4, ptr %18) #9
  call void @llvm.lifetime.end.p0(i64 4, ptr %17) #9
  call void @llvm.lifetime.end.p0(i64 8, ptr %16) #9
  call void @llvm.lifetime.end.p0(i64 8, ptr %15) #9
  call void @llvm.lifetime.end.p0(i64 8, ptr %14) #9
  call void @llvm.lifetime.end.p0(i64 8, ptr %13) #9
  call void @llvm.lifetime.end.p0(i64 8, ptr %12) #9
  call void @llvm.lifetime.end.p0(i64 8, ptr %11) #9
  call void @llvm.lifetime.end.p0(i64 8, ptr %10) #9
  %174 = load i32, ptr %5, align 4
  ret i32 %174
}