; Function Attrs: nounwind uwtable
define internal fastcc i32 @do_decompress(ptr noundef nonnull %0, ptr noundef nonnull readonly captures(none) %1, ptr noundef nonnull %2, ptr noundef nonnull readonly captures(none) %3) unnamed_addr #0 {
  %5 = alloca i64, align 8
  %6 = alloca i64, align 8
  %7 = getelementptr inbounds nuw i8, ptr %1, i64 32
  %8 = load ptr, ptr %7, align 8, !tbaa !29
  %9 = getelementptr inbounds nuw i8, ptr %1, i64 40
  %10 = load i64, ptr %9, align 8, !tbaa !30
  call void @llvm.lifetime.start.p0(i64 8, ptr nonnull %5) #11
  call void @llvm.lifetime.start.p0(i64 8, ptr nonnull %6) #11
  %11 = icmp ult i64 %10, 18
  br i1 %11, label %17, label %12

12:                                               ; preds = %4
  %13 = load i8, ptr %8, align 1, !tbaa !14
  %.not = icmp eq i8 %13, 31
  br i1 %.not, label %14, label %17

14:                                               ; preds = %12
  %15 = getelementptr inbounds nuw i8, ptr %8, i64 1
  %16 = load i8, ptr %15, align 1, !tbaa !14
  %.not72 = icmp eq i8 %16, -117
  br i1 %.not72, label %29, label %17

17:                                               ; preds = %14, %12, %4
  %18 = getelementptr inbounds nuw i8, ptr %3, i64 2
  %19 = load i8, ptr %18, align 2, !tbaa !31, !range !25, !noundef !26
  %20 = trunc nuw i8 %19 to i1
  br i1 %20, label %21, label %26

21:                                               ; preds = %17
  %22 = load i8, ptr %3, align 8, !tbaa !33, !range !25, !noundef !26
  %23 = trunc nuw i8 %22 to i1
  br i1 %23, label %24, label %26

24:                                               ; preds = %21
  %25 = tail call i32 @full_write(ptr noundef nonnull %2, ptr noundef %8, i64 noundef %10) #11
  br label %74

26:                                               ; preds = %21, %17
  %27 = getelementptr inbounds nuw i8, ptr %1, i64 8
  %28 = load ptr, ptr %27, align 8, !tbaa !20
  tail call void (ptr, ...) @msg(ptr noundef nonnull @.str.14, ptr noundef %28) #11
  br label %74

29:                                               ; preds = %14
  %30 = getelementptr i8, ptr %8, i64 %10
  %31 = getelementptr i8, ptr %30, i64 -4
  %.0.copyload.i = load i32, ptr %31, align 1
  %narrow = tail call i32 @llvm.umax.i32(i32 %.0.copyload.i, i32 1)
  %spec.store.select = zext i32 %narrow to i64
  %32 = icmp ult i64 %10, 17874752009408481
  %33 = mul nuw i64 %10, 1032
  %.051 = select i1 %32, i64 %33, i64 -1
  %34 = getelementptr inbounds nuw i8, ptr %3, i64 4
  br label %35

35:                                               ; preds = %73, %29
  %.061 = phi ptr [ %8, %29 ], [ %.162, %73 ]
  %.059 = phi i64 [ %10, %29 ], [ %.160, %73 ]
  %.055 = phi ptr [ null, %29 ], [ %.358, %73 ]
  %.052 = phi i64 [ %spec.store.select, %29 ], [ %.254, %73 ]
  %36 = icmp eq ptr %.055, null
  br i1 %36, label %37, label %44

37:                                               ; preds = %35
  %38 = call i64 @llvm.umin.i64(i64 %.052, i64 %.051)
  %39 = call ptr @xmalloc(i64 noundef %38) #11
  %40 = icmp eq ptr %39, null
  br i1 %40, label %41, label %44

41:                                               ; preds = %37
  %42 = getelementptr inbounds nuw i8, ptr %1, i64 8
  %43 = load ptr, ptr %42, align 8, !tbaa !20
  call void (ptr, ...) @msg(ptr noundef nonnull @.str.15, ptr noundef %43) #11
  br label %.loopexit

44:                                               ; preds = %37, %35
  %.156 = phi ptr [ %39, %37 ], [ %.055, %35 ]
  %.153 = phi i64 [ %38, %37 ], [ %.052, %35 ]
  %45 = call i32 @libdeflate_gzip_decompress_ex(ptr noundef nonnull %0, ptr noundef %.061, i64 noundef %.059, ptr noundef nonnull %.156, i64 noundef %.153, ptr noundef nonnull %5, ptr noundef nonnull %6) #11
  switch i32 %45, label %54 [
    i32 3, label %46
    i32 0, label %57
  ]

46:                                               ; preds = %44
  %.not76 = icmp ult i64 %.153, %.051
  br i1 %.not76, label %48, label %47

47:                                               ; preds = %46
  call void (ptr, ...) @msg(ptr noundef nonnull @.str.16) #11
  br label %.loopexit

48:                                               ; preds = %46
  %.not77 = icmp sgt i64 %.153, 0
  br i1 %.not77, label %52, label %49

49:                                               ; preds = %48
  %50 = getelementptr inbounds nuw i8, ptr %1, i64 8
  %51 = load ptr, ptr %50, align 8, !tbaa !20
  call void (ptr, ...) @msg(ptr noundef nonnull @.str.17, ptr noundef %51) #11
  br label %.loopexit

52:                                               ; preds = %48
  %53 = shl nuw i64 %.153, 1
  call void @free(ptr noundef nonnull %.156) #11
  br label %73

54:                                               ; preds = %44
  %55 = getelementptr inbounds nuw i8, ptr %1, i64 8
  %56 = load ptr, ptr %55, align 8, !tbaa !20
  call void (ptr, ...) @msg(ptr noundef nonnull @.str.18, ptr noundef %56) #11
  br label %.loopexit

57:                                               ; preds = %44
  %58 = load i64, ptr %5, align 8, !tbaa !34
  %59 = add i64 %58, -1
  %or.cond.not = icmp ult i64 %59, %.059
  br i1 %or.cond.not, label %60, label %63

60:                                               ; preds = %57
  %61 = load i64, ptr %6, align 8, !tbaa !34
  %62 = icmp ugt i64 %61, %.153
  br i1 %62, label %63, label %64

63:                                               ; preds = %60, %57
  call void (ptr, ...) @msg(ptr noundef nonnull @.str.19) #11
  br label %.loopexit

64:                                               ; preds = %60
  %65 = load i8, ptr %34, align 4, !tbaa !35, !range !25, !noundef !26
  %66 = trunc nuw i8 %65 to i1
  br i1 %66, label %69, label %67

67:                                               ; preds = %64
  %68 = call i32 @full_write(ptr noundef nonnull %2, ptr noundef nonnull %.156, i64 noundef %61) #11
  %.not75 = icmp eq i32 %68, 0
  br i1 %.not75, label %._crit_edge, label %.loopexit

._crit_edge:                                      ; preds = %67
  %.pre = load i64, ptr %5, align 8, !tbaa !34
  br label %69

69:                                               ; preds = %._crit_edge, %64
  %70 = phi i64 [ %.pre, %._crit_edge ], [ %58, %64 ]
  %71 = getelementptr inbounds nuw i8, ptr %.061, i64 %70
  %72 = sub i64 %.059, %70
  br label %73

73:                                               ; preds = %69, %52
  %.162 = phi ptr [ %.061, %52 ], [ %71, %69 ]
  %.160 = phi i64 [ %.059, %52 ], [ %72, %69 ]
  %.358 = phi ptr [ null, %52 ], [ %.156, %69 ]
  %.254 = phi i64 [ %53, %52 ], [ %.153, %69 ]
  %.not78 = icmp eq i64 %.160, 0
  br i1 %.not78, label %.loopexit, label %35

.loopexit:                                        ; preds = %73, %67, %63, %54, %49, %47, %41
  %.257 = phi ptr [ null, %41 ], [ %.156, %47 ], [ %.156, %49 ], [ %.156, %54 ], [ %.156, %63 ], [ %.156, %67 ], [ %.358, %73 ]
  %.1 = phi i32 [ -1, %41 ], [ -1, %47 ], [ -1, %49 ], [ -1, %54 ], [ -1, %63 ], [ %68, %67 ], [ 0, %73 ]
  call void @free(ptr noundef %.257) #11
  br label %74

74:                                               ; preds = %.loopexit, %26, %24
  %.050 = phi i32 [ %25, %24 ], [ -1, %26 ], [ %.1, %.loopexit ]
  call void @llvm.lifetime.end.p0(i64 8, ptr nonnull %6) #11
  call void @llvm.lifetime.end.p0(i64 8, ptr nonnull %5) #11
  ret i32 %.050
}